; Function Attrs: nofree nounwind uwtable
define noalias noundef ptr @Acec_MapXorOuts(ptr noundef readonly captures(none) %0, ptr noundef readonly captures(none) %1) local_unnamed_addr #3 {
  %3 = getelementptr i8, ptr %0, i64 24
  %.val = load i32, ptr %3, align 8, !tbaa !3
  %4 = ashr i32 %.val, 5
  %5 = and i32 %.val, 31
  %6 = icmp ne i32 %5, 0
  %7 = zext i1 %6 to i32
  %8 = add nsw i32 %4, %7
  %9 = tail call noalias dereferenceable_or_null(16) ptr @malloc(i64 noundef 16) #20
  %10 = shl nsw i32 %8, 5
  store i32 %10, ptr %9, align 8, !tbaa !39
  %.not.i.i = icmp eq i32 %8, 0
  br i1 %.not.i.i, label %Vec_BitStart.exit, label %11

11:                                               ; preds = %2
  %12 = sext i32 %8 to i64
  %13 = shl nsw i64 %12, 2
  %14 = tail call noalias ptr @malloc(i64 noundef %13) #20
  br label %Vec_BitStart.exit

Vec_BitStart.exit:                                ; preds = %2, %11
  %.pre-phi8.i = phi i64 [ %13, %11 ], [ 0, %2 ]
  %15 = phi ptr [ %14, %11 ], [ null, %2 ]
  %16 = getelementptr inbounds nuw i8, ptr %9, i64 4
  %17 = getelementptr inbounds nuw i8, ptr %9, i64 8
  store ptr %15, ptr %17, align 8, !tbaa !41
  store i32 %10, ptr %16, align 4, !tbaa !42
  tail call void @llvm.memset.p0.i64(ptr align 4 %15, i8 0, i64 %.pre-phi8.i, i1 false)
  %18 = getelementptr i8, ptr %1, i64 4
  %.val8 = load i32, ptr %18, align 4, !tbaa !28
  %19 = icmp sgt i32 %.val8, 0
  br i1 %19, label %.lr.ph, label %._crit_edge

.lr.ph:                                           ; preds = %Vec_BitStart.exit
  %20 = getelementptr i8, ptr %1, i64 8
  %.val9 = load ptr, ptr %20, align 8, !tbaa !29
  %21 = add nsw i32 %.val8, -1
  %22 = lshr i32 %21, 2
  %23 = add nuw nsw i32 %22, 1
  %wide.trip.count = zext nneg i32 %23 to i64
  br label %24

24:                                               ; preds = %.lr.ph, %24
  %indvars.iv12 = phi i64 [ 0, %.lr.ph ], [ %indvars.iv.next13, %24 ]
  %indvars.iv = phi i64 [ 0, %.lr.ph ], [ %indvars.iv.next, %24 ]
  %25 = getelementptr inbounds nuw i32, ptr %.val9, i64 %indvars.iv
  %26 = load i32, ptr %25, align 4, !tbaa !30
  %27 = and i32 %26, 31
  %28 = shl nuw i32 1, %27
  %29 = ashr i32 %26, 5
  %30 = sext i32 %29 to i64
  %31 = getelementptr inbounds i32, ptr %15, i64 %30
  %32 = load i32, ptr %31, align 4, !tbaa !30
  %33 = or i32 %28, %32
  store i32 %33, ptr %31, align 4, !tbaa !30
  %indvars.iv.next13 = add nuw nsw i64 %indvars.iv12, 1
  %indvars.iv.next = add nuw nsw i64 %indvars.iv, 4
  %exitcond.not = icmp eq i64 %indvars.iv.next13, %wide.trip.count
  br i1 %exitcond.not, label %._crit_edge, label %24, !llvm.loop !43

._crit_edge:                                      ; preds = %24, %Vec_BitStart.exit
  ret ptr %9
}